target datalayout = "e-m:e-p270:32:32-p271:32:32-p272:64:64-i64:64-i128:128-f80:128-n8:16:32:64-S128"
target triple = "x86_64-pc-linux-gnu"

@.str = private unnamed_addr constant [26 x i8] c"SDL_PIXELFORMAT_INDEX1LSB\00", align 1
@.str.1 = private unnamed_addr constant [26 x i8] c"SDL_PIXELFORMAT_INDEX1MSB\00", align 1
@.str.2 = private unnamed_addr constant [26 x i8] c"SDL_PIXELFORMAT_INDEX2LSB\00", align 1
@.str.3 = private unnamed_addr constant [26 x i8] c"SDL_PIXELFORMAT_INDEX2MSB\00", align 1
@.str.4 = private unnamed_addr constant [26 x i8] c"SDL_PIXELFORMAT_INDEX4LSB\00", align 1
@.str.5 = private unnamed_addr constant [26 x i8] c"SDL_PIXELFORMAT_INDEX4MSB\00", align 1
@.str.6 = private unnamed_addr constant [23 x i8] c"SDL_PIXELFORMAT_INDEX8\00", align 1
@.str.7 = private unnamed_addr constant [23 x i8] c"SDL_PIXELFORMAT_RGB332\00", align 1
@.str.8 = private unnamed_addr constant [25 x i8] c"SDL_PIXELFORMAT_XRGB4444\00", align 1
@.str.9 = private unnamed_addr constant [25 x i8] c"SDL_PIXELFORMAT_XBGR4444\00", align 1
@.str.10 = private unnamed_addr constant [25 x i8] c"SDL_PIXELFORMAT_XRGB1555\00", align 1
@.str.11 = private unnamed_addr constant [25 x i8] c"SDL_PIXELFORMAT_XBGR1555\00", align 1
@.str.12 = private unnamed_addr constant [25 x i8] c"SDL_PIXELFORMAT_ARGB4444\00", align 1
@.str.13 = private unnamed_addr constant [25 x i8] c"SDL_PIXELFORMAT_RGBA4444\00", align 1
@.str.14 = private unnamed_addr constant [25 x i8] c"SDL_PIXELFORMAT_ABGR4444\00", align 1
@.str.15 = private unnamed_addr constant [25 x i8] c"SDL_PIXELFORMAT_BGRA4444\00", align 1
@.str.16 = private unnamed_addr constant [25 x i8] c"SDL_PIXELFORMAT_ARGB1555\00", align 1
@.str.17 = private unnamed_addr constant [25 x i8] c"SDL_PIXELFORMAT_RGBA5551\00", align 1
@.str.18 = private unnamed_addr constant [25 x i8] c"SDL_PIXELFORMAT_ABGR1555\00", align 1
@.str.19 = private unnamed_addr constant [25 x i8] c"SDL_PIXELFORMAT_BGRA5551\00", align 1
@.str.20 = private unnamed_addr constant [23 x i8] c"SDL_PIXELFORMAT_RGB565\00", align 1
@.str.21 = private unnamed_addr constant [23 x i8] c"SDL_PIXELFORMAT_BGR565\00", align 1
@.str.22 = private unnamed_addr constant [22 x i8] c"SDL_PIXELFORMAT_RGB24\00", align 1
@.str.23 = private unnamed_addr constant [22 x i8] c"SDL_PIXELFORMAT_BGR24\00", align 1
@.str.24 = private unnamed_addr constant [25 x i8] c"SDL_PIXELFORMAT_XRGB8888\00", align 1
@.str.25 = private unnamed_addr constant [25 x i8] c"SDL_PIXELFORMAT_RGBX8888\00", align 1
@.str.26 = private unnamed_addr constant [25 x i8] c"SDL_PIXELFORMAT_XBGR8888\00", align 1
@.str.27 = private unnamed_addr constant [25 x i8] c"SDL_PIXELFORMAT_BGRX8888\00", align 1
@.str.28 = private unnamed_addr constant [25 x i8] c"SDL_PIXELFORMAT_ARGB8888\00", align 1
@.str.29 = private unnamed_addr constant [25 x i8] c"SDL_PIXELFORMAT_RGBA8888\00", align 1
@.str.30 = private unnamed_addr constant [25 x i8] c"SDL_PIXELFORMAT_ABGR8888\00", align 1
@.str.31 = private unnamed_addr constant [25 x i8] c"SDL_PIXELFORMAT_BGRA8888\00", align 1
@.str.32 = private unnamed_addr constant [28 x i8] c"SDL_PIXELFORMAT_XRGB2101010\00", align 1
@.str.33 = private unnamed_addr constant [28 x i8] c"SDL_PIXELFORMAT_XBGR2101010\00", align 1
@.str.34 = private unnamed_addr constant [28 x i8] c"SDL_PIXELFORMAT_ARGB2101010\00", align 1
@.str.35 = private unnamed_addr constant [28 x i8] c"SDL_PIXELFORMAT_ABGR2101010\00", align 1
@.str.36 = private unnamed_addr constant [22 x i8] c"SDL_PIXELFORMAT_RGB48\00", align 1
@.str.37 = private unnamed_addr constant [22 x i8] c"SDL_PIXELFORMAT_BGR48\00", align 1
@.str.38 = private unnamed_addr constant [23 x i8] c"SDL_PIXELFORMAT_RGBA64\00", align 1
@.str.39 = private unnamed_addr constant [23 x i8] c"SDL_PIXELFORMAT_ARGB64\00", align 1
@.str.40 = private unnamed_addr constant [23 x i8] c"SDL_PIXELFORMAT_BGRA64\00", align 1
@.str.41 = private unnamed_addr constant [23 x i8] c"SDL_PIXELFORMAT_ABGR64\00", align 1
@.str.42 = private unnamed_addr constant [28 x i8] c"SDL_PIXELFORMAT_RGB48_FLOAT\00", align 1
@.str.43 = private unnamed_addr constant [28 x i8] c"SDL_PIXELFORMAT_BGR48_FLOAT\00", align 1
@.str.44 = private unnamed_addr constant [29 x i8] c"SDL_PIXELFORMAT_RGBA64_FLOAT\00", align 1
@.str.45 = private unnamed_addr constant [29 x i8] c"SDL_PIXELFORMAT_ARGB64_FLOAT\00", align 1
@.str.46 = private unnamed_addr constant [29 x i8] c"SDL_PIXELFORMAT_BGRA64_FLOAT\00", align 1
@.str.47 = private unnamed_addr constant [29 x i8] c"SDL_PIXELFORMAT_ABGR64_FLOAT\00", align 1
@.str.48 = private unnamed_addr constant [28 x i8] c"SDL_PIXELFORMAT_RGB96_FLOAT\00", align 1
@.str.49 = private unnamed_addr constant [28 x i8] c"SDL_PIXELFORMAT_BGR96_FLOAT\00", align 1
@.str.50 = private unnamed_addr constant [30 x i8] c"SDL_PIXELFORMAT_RGBA128_FLOAT\00", align 1
@.str.51 = private unnamed_addr constant [30 x i8] c"SDL_PIXELFORMAT_ARGB128_FLOAT\00", align 1
@.str.52 = private unnamed_addr constant [30 x i8] c"SDL_PIXELFORMAT_BGRA128_FLOAT\00", align 1
@.str.53 = private unnamed_addr constant [30 x i8] c"SDL_PIXELFORMAT_ABGR128_FLOAT\00", align 1
@.str.54 = private unnamed_addr constant [21 x i8] c"SDL_PIXELFORMAT_YV12\00", align 1
@.str.55 = private unnamed_addr constant [21 x i8] c"SDL_PIXELFORMAT_IYUV\00", align 1
@.str.56 = private unnamed_addr constant [21 x i8] c"SDL_PIXELFORMAT_YUY2\00", align 1
@.str.57 = private unnamed_addr constant [21 x i8] c"SDL_PIXELFORMAT_UYVY\00", align 1
@.str.58 = private unnamed_addr constant [21 x i8] c"SDL_PIXELFORMAT_YVYU\00", align 1
@.str.59 = private unnamed_addr constant [21 x i8] c"SDL_PIXELFORMAT_NV12\00", align 1
@.str.60 = private unnamed_addr constant [21 x i8] c"SDL_PIXELFORMAT_NV21\00", align 1
@.str.61 = private unnamed_addr constant [21 x i8] c"SDL_PIXELFORMAT_P010\00", align 1
@.str.62 = private unnamed_addr constant [29 x i8] c"SDL_PIXELFORMAT_EXTERNAL_OES\00", align 1
@.str.63 = private unnamed_addr constant [21 x i8] c"SDL_PIXELFORMAT_MJPG\00", align 1
@.str.64 = private unnamed_addr constant [24 x i8] c"SDL_PIXELFORMAT_UNKNOWN\00", align 1

; Function Attrs: nounwind uwtable
define hidden ptr @SDL_GetPixelFormatName_REAL(i32 noundef %0) #0 {
  %2 = alloca ptr, align 8
  %3 = alloca i32, align 4
  store i32 %0, ptr %3, align 4
  %4 = load i32, ptr %3, align 4
  switch i32 %4, label %69 [
    i32 286261504, label %5
    i32 287310080, label %6
    i32 470811136, label %7
    i32 471859712, label %8
    i32 303039488, label %9
    i32 304088064, label %10
    i32 318769153, label %11
    i32 336660481, label %12
    i32 353504258, label %13
    i32 357698562, label %14
    i32 353570562, label %15
    i32 357764866, label %16
    i32 355602434, label %17
    i32 356651010, label %18
    i32 359796738, label %19
    i32 360845314, label %20
    i32 355667970, label %21
    i32 356782082, label %22
    i32 359862274, label %23
    i32 360976386, label %24
    i32 353701890, label %25
    i32 357896194, label %26
    i32 386930691, label %27
    i32 390076419, label %28
    i32 370546692, label %29
    i32 371595268, label %30
    i32 374740996, label %31
    i32 375789572, label %32
    i32 372645892, label %33
    i32 373694468, label %34
    i32 376840196, label %35
    i32 377888772, label %36
    i32 370614276, label %37
    i32 374808580, label %38
    i32 372711428, label %39
    i32 376905732, label %40
    i32 403714054, label %41
    i32 406859782, label %42
    i32 404766728, label %43
    i32 405815304, label %44
    i32 407912456, label %45
    i32 408961032, label %46
    i32 437268486, label %47
    i32 440414214, label %48
    i32 438321160, label %49
    i32 439369736, label %50
    i32 441466888, label %51
    i32 442515464, label %52
    i32 454057996, label %53
    i32 457203724, label %54
    i32 455114768, label %55
    i32 456163344, label %56
    i32 458260496, label %57
    i32 459309072, label %58
    i32 842094169, label %59
    i32 1448433993, label %60
    i32 844715353, label %61
    i32 1498831189, label %62
    i32 1431918169, label %63
    i32 842094158, label %64
    i32 825382478, label %65
    i32 808530000, label %66
    i32 542328143, label %67
    i32 1196444237, label %68
  ]

5:                                                ; preds = %1
  store ptr @.str, ptr %2, align 8
  br label %70

6:                                                ; preds = %1
  store ptr @.str.1, ptr %2, align 8
  br label %70

7:                                                ; preds = %1
  store ptr @.str.2, ptr %2, align 8
  br label %70

8:                                                ; preds = %1
  store ptr @.str.3, ptr %2, align 8
  br label %70

9:                                                ; preds = %1
  store ptr @.str.4, ptr %2, align 8
  br label %70

10:                                               ; preds = %1
  store ptr @.str.5, ptr %2, align 8
  br label %70

11:                                               ; preds = %1
  store ptr @.str.6, ptr %2, align 8
  br label %70

12:                                               ; preds = %1
  store ptr @.str.7, ptr %2, align 8
  br label %70

13:                                               ; preds = %1
  store ptr @.str.8, ptr %2, align 8
  br label %70

14:                                               ; preds = %1
  store ptr @.str.9, ptr %2, align 8
  br label %70

15:                                               ; preds = %1
  store ptr @.str.10, ptr %2, align 8
  br label %70

16:                                               ; preds = %1
  store ptr @.str.11, ptr %2, align 8
  br label %70

17:                                               ; preds = %1
  store ptr @.str.12, ptr %2, align 8
  br label %70

18:                                               ; preds = %1
  store ptr @.str.13, ptr %2, align 8
  br label %70

19:                                               ; preds = %1
  store ptr @.str.14, ptr %2, align 8
  br label %70

20:                                               ; preds = %1
  store ptr @.str.15, ptr %2, align 8
  br label %70

21:                                               ; preds = %1
  store ptr @.str.16, ptr %2, align 8
  br label %70

22:                                               ; preds = %1
  store ptr @.str.17, ptr %2, align 8
  br label %70

23:                                               ; preds = %1
  store ptr @.str.18, ptr %2, align 8
  br label %70

24:                                               ; preds = %1
  store ptr @.str.19, ptr %2, align 8
  br label %70

25:                                               ; preds = %1
  store ptr @.str.20, ptr %2, align 8
  br label %70

26:                                               ; preds = %1
  store ptr @.str.21, ptr %2, align 8
  br label %70

27:                                               ; preds = %1
  store ptr @.str.22, ptr %2, align 8
  br label %70

28:                                               ; preds = %1
  store ptr @.str.23, ptr %2, align 8
  br label %70

29:                                               ; preds = %1
  store ptr @.str.24, ptr %2, align 8
  br label %70

30:                                               ; preds = %1
  store ptr @.str.25, ptr %2, align 8
  br label %70

31:                                               ; preds = %1
  store ptr @.str.26, ptr %2, align 8
  br label %70

32:                                               ; preds = %1
  store ptr @.str.27, ptr %2, align 8
  br label %70

33:                                               ; preds = %1
  store ptr @.str.28, ptr %2, align 8
  br label %70

34:                                               ; preds = %1
  store ptr @.str.29, ptr %2, align 8
  br label %70

35:                                               ; preds = %1
  store ptr @.str.30, ptr %2, align 8
  br label %70

36:                                               ; preds = %1
  store ptr @.str.31, ptr %2, align 8
  br label %70

37:                                               ; preds = %1
  store ptr @.str.32, ptr %2, align 8
  br label %70

38:                                               ; preds = %1
  store ptr @.str.33, ptr %2, align 8
  br label %70

39:                                               ; preds = %1
  store ptr @.str.34, ptr %2, align 8
  br label %70

40:                                               ; preds = %1
  store ptr @.str.35, ptr %2, align 8
  br label %70

41:                                               ; preds = %1
  store ptr @.str.36, ptr %2, align 8
  br label %70

42:                                               ; preds = %1
  store ptr @.str.37, ptr %2, align 8
  br label %70

43:                                               ; preds = %1
  store ptr @.str.38, ptr %2, align 8
  br label %70

44:                                               ; preds = %1
  store ptr @.str.39, ptr %2, align 8
  br label %70

45:                                               ; preds = %1
  store ptr @.str.40, ptr %2, align 8
  br label %70

46:                                               ; preds = %1
  store ptr @.str.41, ptr %2, align 8
  br label %70

47:                                               ; preds = %1
  store ptr @.str.42, ptr %2, align 8
  br label %70

48:                                               ; preds = %1
  store ptr @.str.43, ptr %2, align 8
  br label %70

49:                                               ; preds = %1
  store ptr @.str.44, ptr %2, align 8
  br label %70

50:                                               ; preds = %1
  store ptr @.str.45, ptr %2, align 8
  br label %70

51:                                               ; preds = %1
  store ptr @.str.46, ptr %2, align 8
  br label %70

52:                                               ; preds = %1
  store ptr @.str.47, ptr %2, align 8
  br label %70

53:                                               ; preds = %1
  store ptr @.str.48, ptr %2, align 8
  br label %70

54:                                               ; preds = %1
  store ptr @.str.49, ptr %2, align 8
  br label %70

55:                                               ; preds = %1
  store ptr @.str.50, ptr %2, align 8
  br label %70

56:                                               ; preds = %1
  store ptr @.str.51, ptr %2, align 8
  br label %70

57:                                               ; preds = %1
  store ptr @.str.52, ptr %2, align 8
  br label %70

58:                                               ; preds = %1
  store ptr @.str.53, ptr %2, align 8
  br label %70

59:                                               ; preds = %1
  store ptr @.str.54, ptr %2, align 8
  br label %70

60:                                               ; preds = %1
  store ptr @.str.55, ptr %2, align 8
  br label %70

61:                                               ; preds = %1
  store ptr @.str.56, ptr %2, align 8
  br label %70

62:                                               ; preds = %1
  store ptr @.str.57, ptr %2, align 8
  br label %70

63:                                               ; preds = %1
  store ptr @.str.58, ptr %2, align 8
  br label %70

64:                                               ; preds = %1
  store ptr @.str.59, ptr %2, align 8
  br label %70

65:                                               ; preds = %1
  store ptr @.str.60, ptr %2, align 8
  br label %70

66:                                               ; preds = %1
  store ptr @.str.61, ptr %2, align 8
  br label %70

67:                                               ; preds = %1
  store ptr @.str.62, ptr %2, align 8
  br label %70

68:                                               ; preds = %1
  store ptr @.str.63, ptr %2, align 8
  br label %70

69:                                               ; preds = %1
  store ptr @.str.64, ptr %2, align 8
  br label %70

70:                                               ; preds = %69, %68, %67, %66, %65, %64, %63, %62, %61, %60, %59, %58, %57, %56, %55, %54, %53, %52, %51, %50, %49, %48, %47, %46, %45, %44, %43, %42, %41, %40, %39, %38, %37, %36, %35, %34, %33, %32, %31, %30, %29, %28, %27, %26, %25, %24, %23, %22, %21, %20, %19, %18, %17, %16, %15, %14, %13, %12, %11, %10, %9, %8, %7, %6, %5
  %71 = load ptr, ptr %2, align 8
  ret ptr %71
}