; Function Attrs: mustprogress nofree norecurse nosync nounwind willreturn memory(none) uwtable
define hidden noundef nonnull ptr @SDL_GetPixelFormatName_REAL(i32 noundef %0) local_unnamed_addr #0 {
  switch i32 %0, label %65 [
    i32 286261504, label %66
    i32 287310080, label %2
    i32 470811136, label %3
    i32 471859712, label %4
    i32 303039488, label %5
    i32 304088064, label %6
    i32 318769153, label %7
    i32 336660481, label %8
    i32 353504258, label %9
    i32 357698562, label %10
    i32 353570562, label %11
    i32 357764866, label %12
    i32 355602434, label %13
    i32 356651010, label %14
    i32 359796738, label %15
    i32 360845314, label %16
    i32 355667970, label %17
    i32 356782082, label %18
    i32 359862274, label %19
    i32 360976386, label %20
    i32 353701890, label %21
    i32 357896194, label %22
    i32 386930691, label %23
    i32 390076419, label %24
    i32 370546692, label %25
    i32 371595268, label %26
    i32 374740996, label %27
    i32 375789572, label %28
    i32 372645892, label %29
    i32 373694468, label %30
    i32 376840196, label %31
    i32 377888772, label %32
    i32 370614276, label %33
    i32 374808580, label %34
    i32 372711428, label %35
    i32 376905732, label %36
    i32 403714054, label %37
    i32 406859782, label %38
    i32 404766728, label %39
    i32 405815304, label %40
    i32 407912456, label %41
    i32 408961032, label %42
    i32 437268486, label %43
    i32 440414214, label %44
    i32 438321160, label %45
    i32 439369736, label %46
    i32 441466888, label %47
    i32 442515464, label %48
    i32 454057996, label %49
    i32 457203724, label %50
    i32 455114768, label %51
    i32 456163344, label %52
    i32 458260496, label %53
    i32 459309072, label %54
    i32 842094169, label %55
    i32 1448433993, label %56
    i32 844715353, label %57
    i32 1498831189, label %58
    i32 1431918169, label %59
    i32 842094158, label %60
    i32 825382478, label %61
    i32 808530000, label %62
    i32 542328143, label %63
    i32 1196444237, label %64
  ]

2:                                                ; preds = %1
  br label %66

3:                                                ; preds = %1
  br label %66

4:                                                ; preds = %1
  br label %66

5:                                                ; preds = %1
  br label %66

6:                                                ; preds = %1
  br label %66

7:                                                ; preds = %1
  br label %66

8:                                                ; preds = %1
  br label %66

9:                                                ; preds = %1
  br label %66

10:                                               ; preds = %1
  br label %66

11:                                               ; preds = %1
  br label %66

12:                                               ; preds = %1
  br label %66

13:                                               ; preds = %1
  br label %66

14:                                               ; preds = %1
  br label %66

15:                                               ; preds = %1
  br label %66

16:                                               ; preds = %1
  br label %66

17:                                               ; preds = %1
  br label %66

18:                                               ; preds = %1
  br label %66

19:                                               ; preds = %1
  br label %66

20:                                               ; preds = %1
  br label %66

21:                                               ; preds = %1
  br label %66

22:                                               ; preds = %1
  br label %66

23:                                               ; preds = %1
  br label %66

24:                                               ; preds = %1
  br label %66

25:                                               ; preds = %1
  br label %66

26:                                               ; preds = %1
  br label %66

27:                                               ; preds = %1
  br label %66

28:                                               ; preds = %1
  br label %66

29:                                               ; preds = %1
  br label %66

30:                                               ; preds = %1
  br label %66

31:                                               ; preds = %1
  br label %66

32:                                               ; preds = %1
  br label %66

33:                                               ; preds = %1
  br label %66

34:                                               ; preds = %1
  br label %66

35:                                               ; preds = %1
  br label %66

36:                                               ; preds = %1
  br label %66

37:                                               ; preds = %1
  br label %66

38:                                               ; preds = %1
  br label %66

39:                                               ; preds = %1
  br label %66

40:                                               ; preds = %1
  br label %66

41:                                               ; preds = %1
  br label %66

42:                                               ; preds = %1
  br label %66

43:                                               ; preds = %1
  br label %66

44:                                               ; preds = %1
  br label %66

45:                                               ; preds = %1
  br label %66

46:                                               ; preds = %1
  br label %66

47:                                               ; preds = %1
  br label %66

48:                                               ; preds = %1
  br label %66

49:                                               ; preds = %1
  br label %66

50:                                               ; preds = %1
  br label %66

51:                                               ; preds = %1
  br label %66

52:                                               ; preds = %1
  br label %66

53:                                               ; preds = %1
  br label %66

54:                                               ; preds = %1
  br label %66

55:                                               ; preds = %1
  br label %66

56:                                               ; preds = %1
  br label %66

57:                                               ; preds = %1
  br label %66

58:                                               ; preds = %1
  br label %66

59:                                               ; preds = %1
  br label %66

60:                                               ; preds = %1
  br label %66

61:                                               ; preds = %1
  br label %66

62:                                               ; preds = %1
  br label %66

63:                                               ; preds = %1
  br label %66

64:                                               ; preds = %1
  br label %66

65:                                               ; preds = %1
  br label %66

66:                                               ; preds = %1, %65, %64, %63, %62, %61, %60, %59, %58, %57, %56, %55, %54, %53, %52, %51, %50, %49, %48, %47, %46, %45, %44, %43, %42, %41, %40, %39, %38, %37, %36, %35, %34, %33, %32, %31, %30, %29, %28, %27, %26, %25, %24, %23, %22, %21, %20, %19, %18, %17, %16, %15, %14, %13, %12, %11, %10, %9, %8, %7, %6, %5, %4, %3, %2
  %.0 = phi ptr [ @.str.64, %65 ], [ @.str.63, %64 ], [ @.str.62, %63 ], [ @.str.61, %62 ], [ @.str.60, %61 ], [ @.str.59, %60 ], [ @.str.58, %59 ], [ @.str.57, %58 ], [ @.str.56, %57 ], [ @.str.55, %56 ], [ @.str.54, %55 ], [ @.str.53, %54 ], [ @.str.52, %53 ], [ @.str.51, %52 ], [ @.str.50, %51 ], [ @.str.49, %50 ], [ @.str.48, %49 ], [ @.str.47, %48 ], [ @.str.46, %47 ], [ @.str.45, %46 ], [ @.str.44, %45 ], [ @.str.43, %44 ], [ @.str.42, %43 ], [ @.str.41, %42 ], [ @.str.40, %41 ], [ @.str.39, %40 ], [ @.str.38, %39 ], [ @.str.37, %38 ], [ @.str.36, %37 ], [ @.str.35, %36 ], [ @.str.34, %35 ], [ @.str.33, %34 ], [ @.str.32, %33 ], [ @.str.31, %32 ], [ @.str.30, %31 ], [ @.str.29, %30 ], [ @.str.28, %29 ], [ @.str.27, %28 ], [ @.str.26, %27 ], [ @.str.25, %26 ], [ @.str.24, %25 ], [ @.str.23, %24 ], [ @.str.22, %23 ], [ @.str.21, %22 ], [ @.str.20, %21 ], [ @.str.19, %20 ], [ @.str.18, %19 ], [ @.str.17, %18 ], [ @.str.16, %17 ], [ @.str.15, %16 ], [ @.str.14, %15 ], [ @.str.13, %14 ], [ @.str.12, %13 ], [ @.str.11, %12 ], [ @.str.10, %11 ], [ @.str.9, %10 ], [ @.str.8, %9 ], [ @.str.7, %8 ], [ @.str.6, %7 ], [ @.str.5, %6 ], [ @.str.4, %5 ], [ @.str.3, %4 ], [ @.str.2, %3 ], [ @.str.1, %2 ], [ @.str, %1 ]
  ret ptr %.0
}